; Function Attrs: mustprogress nofree nounwind uwtable
define noalias noundef ptr @_ZN4base8OpenFileERKNS_8FilePathEPKc(ptr noundef nonnull readonly align 8 captures(none) dereferenceable(32) %0, ptr noundef readonly captures(none) %1) local_unnamed_addr #6 {
  br label %3

3:                                                ; preds = %6, %2
  %4 = load ptr, ptr %0, align 8, !tbaa !3
  %5 = tail call noalias ptr @fopen(ptr noundef %4, ptr noundef %1)
  %.not = icmp eq ptr %5, null
  br i1 %.not, label %6, label %.critedge

6:                                                ; preds = %3
  %7 = tail call ptr @__errno_location() #25
  %8 = load i32, ptr %7, align 4, !tbaa !11
  %9 = icmp eq i32 %8, 4
  br i1 %9, label %3, label %.critedge, !llvm.loop !86

.critedge:                                        ; preds = %3, %6
  ret ptr %5
}